; ModuleID = 'source-C-CXX/57/291.c'
source_filename = "source-C-CXX/57/291.c"
target datalayout = "e-m:e-p270:32:32-p271:32:32-p272:64:64-i64:64-f80:128-n8:16:32:64-S128"
target triple = "x86_64-pc-linux-gnu"

@str.2 = private unnamed_addr constant [2 x i8] c"1\00", align 1
@str.3 = private unnamed_addr constant [2 x i8] c"0\00", align 1

; Function Attrs: nounwind sspstrong uwtable
define dso_local i32 @main() local_unnamed_addr #0 {
  %1 = alloca [2 x i8], align 1
  %2 = alloca [100 x i8], align 16
  %3 = getelementptr inbounds [2 x i8], [2 x i8]* %1, i64 0, i64 0
  call void @llvm.lifetime.start.p0i8(i64 2, i8* nonnull %3) #6
  %4 = call i32 (i8*, ...) bitcast (i32 (...)* @gets to i32 (i8*, ...)*)(i8* nonnull %3) #6
  %5 = call i64 @strtol(i8* nocapture nonnull %3, i8** null, i32 10) #6
  %6 = trunc i64 %5 to i32
  %7 = getelementptr inbounds [100 x i8], [100 x i8]* %2, i64 0, i64 0
  call void @llvm.lifetime.start.p0i8(i64 100, i8* nonnull %7) #6
  %8 = icmp sgt i32 %6, 0
  br i1 %8, label %9, label %48

9:                                                ; preds = %0, %43
  %10 = phi i32 [ %46, %43 ], [ 0, %0 ]
  %11 = call i32 (i8*, ...) bitcast (i32 (...)* @gets to i32 (i8*, ...)*)(i8* nonnull %7) #6
  %12 = call i64 @strlen(i8* noundef nonnull %7) #7
  %13 = trunc i64 %12 to i32
  %14 = load i8, i8* %7, align 16, !tbaa !5
  %15 = add i8 %14, -65
  %16 = icmp ult i8 %15, 26
  br i1 %16, label %22, label %17

17:                                               ; preds = %9
  %18 = add i8 %14, -97
  %19 = icmp ult i8 %18, 26
  %20 = icmp eq i8 %14, 95
  %21 = or i1 %20, %19
  br i1 %21, label %22, label %43

22:                                               ; preds = %17, %9
  %23 = icmp sgt i32 %13, 1
  br i1 %23, label %24, label %43

24:                                               ; preds = %22
  %25 = and i64 %12, 4294967295
  br label %26

26:                                               ; preds = %24, %40
  %27 = phi i64 [ 1, %24 ], [ %41, %40 ]
  %28 = getelementptr inbounds [100 x i8], [100 x i8]* %2, i64 0, i64 %27
  %29 = load i8, i8* %28, align 1, !tbaa !5
  %30 = add i8 %29, -65
  %31 = icmp ult i8 %30, 26
  %32 = add i8 %29, -48
  %33 = icmp ult i8 %32, 10
  %34 = or i1 %31, %33
  br i1 %34, label %40, label %35

35:                                               ; preds = %26
  %36 = add i8 %29, -97
  %37 = icmp ult i8 %36, 26
  %38 = icmp eq i8 %29, 95
  %39 = or i1 %38, %37
  br i1 %39, label %40, label %43

40:                                               ; preds = %35, %26
  %41 = add nuw nsw i64 %27, 1
  %42 = icmp eq i64 %41, %25
  br i1 %42, label %43, label %26, !llvm.loop !8

43:                                               ; preds = %40, %35, %22, %17
  %44 = phi i8* [ getelementptr inbounds ([2 x i8], [2 x i8]* @str.3, i64 0, i64 0), %17 ], [ getelementptr inbounds ([2 x i8], [2 x i8]* @str.2, i64 0, i64 0), %22 ], [ getelementptr inbounds ([2 x i8], [2 x i8]* @str.3, i64 0, i64 0), %35 ], [ getelementptr inbounds ([2 x i8], [2 x i8]* @str.2, i64 0, i64 0), %40 ]
  %45 = call i32 @puts(i8* nonnull dereferenceable(1) %44)
  %46 = add nuw nsw i32 %10, 1
  %47 = icmp eq i32 %46, %6
  br i1 %47, label %48, label %9, !llvm.loop !10

48:                                               ; preds = %43, %0
  call void @llvm.lifetime.end.p0i8(i64 100, i8* nonnull %7) #6
  call void @llvm.lifetime.end.p0i8(i64 2, i8* nonnull %3) #6
  ret i32 0
}

; Function Attrs: argmemonly mustprogress nofree nosync nounwind willreturn
declare void @llvm.lifetime.start.p0i8(i64 immarg, i8* nocapture) #1

declare i32 @gets(...) local_unnamed_addr #2

; Function Attrs: argmemonly mustprogress nofree nounwind readonly willreturn
declare i64 @strlen(i8* nocapture) local_unnamed_addr #3

; Function Attrs: argmemonly mustprogress nofree nosync nounwind willreturn
declare void @llvm.lifetime.end.p0i8(i64 immarg, i8* nocapture) #1

; Function Attrs: mustprogress nofree nounwind willreturn
declare i64 @strtol(i8* readonly, i8** nocapture, i32) local_unnamed_addr #4

; Function Attrs: nofree nounwind
declare noundef i32 @puts(i8* nocapture noundef readonly) local_unnamed_addr #5


!llvm.module.flags = !{!0, !1, !2, !3}
!llvm.ident = !{!4}

!0 = !{i32 1, !"wchar_size", i32 4}
!1 = !{i32 7, !"PIC Level", i32 2}
!2 = !{i32 7, !"PIE Level", i32 2}
!3 = !{i32 7, !"uwtable", i32 1}
!4 = !{!"clang version 13.0.0"}
!5 = !{!6, !6, i64 0}
!6 = !{!"omnipotent char", !7, i64 0}
!7 = !{!"Simple C/C++ TBAA"}
!8 = distinct !{!8, !9}
!9 = !{!"llvm.loop.mustprogress"}
!10 = distinct !{!10, !9}
